target datalayout = "e-m:e-p270:32:32-p271:32:32-p272:64:64-i64:64-i128:128-f80:128-n8:16:32:64-S128"
target triple = "x86_64-pc-linux-gnu"

; Function Attrs: mustprogress nounwind uwtable
define hidden noundef i32 @_Z9luaS_hashPKcm(ptr noundef %0, i64 noundef %1) #0 {
  %3 = alloca ptr, align 8
  %4 = alloca i64, align 8
  %5 = alloca i32, align 4
  %6 = alloca i32, align 4
  %7 = alloca i32, align 4
  %8 = alloca [3 x i32], align 4
  %9 = alloca i64, align 8
  store ptr %0, ptr %3, align 8
  store i64 %1, ptr %4, align 8
  store i32 0, ptr %5, align 4
  store i32 0, ptr %6, align 4
  %10 = load i64, ptr %4, align 8
  %11 = trunc i64 %10 to i32
  store i32 %11, ptr %7, align 4
  br label %12

12:                                               ; preds = %15, %2
  %13 = load i64, ptr %4, align 8
  %14 = icmp uge i64 %13, 32
  br i1 %14, label %15, label %64

15:                                               ; preds = %12
  %16 = getelementptr inbounds [3 x i32], ptr %8, i64 0, i64 0
  %17 = load ptr, ptr %3, align 8
  call void @llvm.memcpy.p0.p0.i64(ptr align 4 %16, ptr align 1 %17, i64 12, i1 false)
  %18 = getelementptr inbounds [3 x i32], ptr %8, i64 0, i64 0
  %19 = load i32, ptr %18, align 4
  %20 = load i32, ptr %5, align 4
  %21 = add i32 %20, %19
  store i32 %21, ptr %5, align 4
  %22 = getelementptr inbounds [3 x i32], ptr %8, i64 0, i64 1
  %23 = load i32, ptr %22, align 4
  %24 = load i32, ptr %6, align 4
  %25 = add i32 %24, %23
  store i32 %25, ptr %6, align 4
  %26 = getelementptr inbounds [3 x i32], ptr %8, i64 0, i64 2
  %27 = load i32, ptr %26, align 4
  %28 = load i32, ptr %7, align 4
  %29 = add i32 %28, %27
  store i32 %29, ptr %7, align 4
  %30 = load i32, ptr %7, align 4
  %31 = load i32, ptr %5, align 4
  %32 = xor i32 %31, %30
  store i32 %32, ptr %5, align 4
  %33 = load i32, ptr %7, align 4
  %34 = lshr i32 %33, 14
  %35 = load i32, ptr %7, align 4
  %36 = shl i32 %35, 18
  %37 = or i32 %34, %36
  %38 = load i32, ptr %5, align 4
  %39 = sub i32 %38, %37
  store i32 %39, ptr %5, align 4
  %40 = load i32, ptr %5, align 4
  %41 = load i32, ptr %6, align 4
  %42 = xor i32 %41, %40
  store i32 %42, ptr %6, align 4
  %43 = load i32, ptr %5, align 4
  %44 = lshr i32 %43, 11
  %45 = load i32, ptr %5, align 4
  %46 = shl i32 %45, 21
  %47 = or i32 %44, %46
  %48 = load i32, ptr %6, align 4
  %49 = sub i32 %48, %47
  store i32 %49, ptr %6, align 4
  %50 = load i32, ptr %6, align 4
  %51 = load i32, ptr %7, align 4
  %52 = xor i32 %51, %50
  store i32 %52, ptr %7, align 4
  %53 = load i32, ptr %6, align 4
  %54 = lshr i32 %53, 25
  %55 = load i32, ptr %6, align 4
  %56 = shl i32 %55, 7
  %57 = or i32 %54, %56
  %58 = load i32, ptr %7, align 4
  %59 = sub i32 %58, %57
  store i32 %59, ptr %7, align 4
  %60 = load ptr, ptr %3, align 8
  %61 = getelementptr inbounds i8, ptr %60, i64 12
  store ptr %61, ptr %3, align 8
  %62 = load i64, ptr %4, align 8
  %63 = sub i64 %62, 12
  store i64 %63, ptr %4, align 8
  br label %12, !llvm.loop !5

64:                                               ; preds = %12
  %65 = load i64, ptr %4, align 8
  store i64 %65, ptr %9, align 8
  br label %66

66:                                               ; preds = %84, %64
  %67 = load i64, ptr %9, align 8
  %68 = icmp ugt i64 %67, 0
  br i1 %68, label %69, label %87

69:                                               ; preds = %66
  %70 = load i32, ptr %7, align 4
  %71 = shl i32 %70, 5
  %72 = load i32, ptr %7, align 4
  %73 = lshr i32 %72, 2
  %74 = add i32 %71, %73
  %75 = load ptr, ptr %3, align 8
  %76 = load i64, ptr %9, align 8
  %77 = sub i64 %76, 1
  %78 = getelementptr inbounds i8, ptr %75, i64 %77
  %79 = load i8, ptr %78, align 1
  %80 = zext i8 %79 to i32
  %81 = add i32 %74, %80
  %82 = load i32, ptr %7, align 4
  %83 = xor i32 %82, %81
  store i32 %83, ptr %7, align 4
  br label %84

84:                                               ; preds = %69
  %85 = load i64, ptr %9, align 8
  %86 = add i64 %85, -1
  store i64 %86, ptr %9, align 8
  br label %66, !llvm.loop !7

87:                                               ; preds = %66
  %88 = load i32, ptr %7, align 4
  ret i32 %88
}