; Function Attrs: mustprogress nofree norecurse nosync nounwind willreturn memory(read, inaccessiblemem: none) uwtable
define hidden noundef i32 @_Z9luaS_hashPKcm(ptr nocapture noundef readonly %0, i64 noundef %1) local_unnamed_addr #0 {
  %3 = trunc i64 %1 to i32
  %4 = icmp ugt i64 %1, 31
  br i1 %4, label %.lr.ph, label %.preheader

.preheader:                                       ; preds = %2
  %.not43 = icmp eq i64 %1, 0
  br i1 %.not43, label %._crit_edge, label %.lr.ph46.preheader

.lr.ph46.preheader:                               ; preds = %.lr.ph, %.preheader
  %.031.lcssa57 = phi ptr [ %0, %.preheader ], [ %17, %.lr.ph ]
  %.032.lcssa56 = phi i64 [ %1, %.preheader ], [ %18, %.lr.ph ]
  %.034.lcssa55 = phi i32 [ %3, %.preheader ], [ %16, %.lr.ph ]
  br label %.lr.ph46

.lr.ph:                                           ; preds = %2, %.lr.ph
  %.03140 = phi ptr [ %17, %.lr.ph ], [ %0, %2 ]
  %.03239 = phi i64 [ %18, %.lr.ph ], [ %1, %2 ]
  %.03338 = phi i32 [ %10, %.lr.ph ], [ 0, %2 ]
  %.03437 = phi i32 [ %16, %.lr.ph ], [ %3, %2 ]
  %.03536 = phi i32 [ %13, %.lr.ph ], [ 0, %2 ]
  %.sroa.0.0.copyload = load i32, ptr %.03140, align 1
  %.sroa.2.0..sroa_idx = getelementptr inbounds i8, ptr %.03140, i64 4
  %.sroa.2.0.copyload = load i32, ptr %.sroa.2.0..sroa_idx, align 1
  %.sroa.3.0..sroa_idx = getelementptr inbounds i8, ptr %.03140, i64 8
  %.sroa.3.0.copyload = load i32, ptr %.sroa.3.0..sroa_idx, align 1
  %5 = add i32 %.sroa.0.0.copyload, %.03338
  %6 = add i32 %.sroa.2.0.copyload, %.03536
  %7 = add i32 %.sroa.3.0.copyload, %.03437
  %8 = xor i32 %7, %5
  %9 = tail call i32 @llvm.fshl.i32(i32 %7, i32 %7, i32 18)
  %10 = sub i32 %8, %9
  %11 = xor i32 %10, %6
  %12 = tail call i32 @llvm.fshl.i32(i32 %10, i32 %10, i32 21)
  %13 = sub i32 %11, %12
  %14 = xor i32 %13, %7
  %15 = tail call i32 @llvm.fshl.i32(i32 %13, i32 %13, i32 7)
  %16 = sub i32 %14, %15
  %17 = getelementptr inbounds i8, ptr %.03140, i64 12
  %18 = add i64 %.03239, -12
  %19 = icmp ugt i64 %18, 31
  br i1 %19, label %.lr.ph, label %.lr.ph46.preheader, !llvm.loop !5

.lr.ph46:                                         ; preds = %.lr.ph46.preheader, %.lr.ph46
  %.045 = phi i64 [ %23, %.lr.ph46 ], [ %.032.lcssa56, %.lr.ph46.preheader ]
  %.144 = phi i32 [ %28, %.lr.ph46 ], [ %.034.lcssa55, %.lr.ph46.preheader ]
  %20 = shl i32 %.144, 5
  %21 = lshr i32 %.144, 2
  %22 = add i32 %20, %21
  %23 = add nsw i64 %.045, -1
  %24 = getelementptr inbounds i8, ptr %.031.lcssa57, i64 %23
  %25 = load i8, ptr %24, align 1
  %26 = zext i8 %25 to i32
  %27 = add i32 %22, %26
  %28 = xor i32 %27, %.144
  %.not = icmp eq i64 %23, 0
  br i1 %.not, label %._crit_edge, label %.lr.ph46, !llvm.loop !7

._crit_edge:                                      ; preds = %.lr.ph46, %.preheader
  %.1.lcssa = phi i32 [ %3, %.preheader ], [ %28, %.lr.ph46 ]
  ret i32 %.1.lcssa
}